; Function Attrs: mustprogress uwtable
define dso_local void @_ZN5vcpkg3msg6detail23format_message_by_indexEmN3fmt3v1017basic_format_argsINS3_20basic_format_contextINS3_8appenderEcEEEE(ptr dead_on_unwind noalias nonnull writable sret(%"struct.vcpkg::LocalizedString") align 8 %0, i64 noundef %1, i64 %2, ptr %3) local_unnamed_addr #3 personality ptr @__gxx_personality_v0 {
  tail call void @_ZNSt7__cxx1112basic_stringIcSt11char_traitsIcESaIcEEC1Ev(ptr noundef nonnull align 8 dereferenceable(32) %0) #25
  invoke void @_ZN5vcpkg3msg6detail26format_message_by_index_toERNS_15LocalizedStringEmN3fmt3v1017basic_format_argsINS5_20basic_format_contextINS5_8appenderEcEEEE(ptr noundef nonnull align 8 dereferenceable(32) %0, i64 noundef %1, i64 %2, ptr %3)
          to label %7 unwind label %5

5:                                                ; preds = %4
  %6 = landingpad { ptr, i32 }
          cleanup
  tail call void @_ZNSt7__cxx1112basic_stringIcSt11char_traitsIcESaIcEED1Ev(ptr noundef nonnull align 8 dereferenceable(32) %0) #25
  resume { ptr, i32 } %6

7:                                                ; preds = %4
  ret void
}